target datalayout = "e-m:e-p270:32:32-p271:32:32-p272:64:64-i64:64-i128:128-f80:128-n8:16:32:64-S128"
target triple = "x86_64-pc-linux-gnu"

; Function Attrs: inlinehint mustprogress nounwind uwtable
define linkonce_odr noundef i32 @_ZN5faiss10popcount64Em(i64 noundef %0) #3 comdat {
  %2 = alloca i64, align 8
  store i64 %0, ptr %2, align 8, !tbaa !9
  %3 = load i64, ptr %2, align 8, !tbaa !9
  %4 = call i64 @llvm.ctpop.i64(i64 %3)
  %5 = trunc i64 %4 to i32
  ret i32 %5
}

; Function Attrs: inlinehint mustprogress uwtable
define linkonce_odr noundef i32 @_ZN5faiss7hammingEPKmS1_m(ptr noundef %0, ptr noundef %1, i64 noundef %2) #2 comdat {
  %4 = alloca ptr, align 8
  %5 = alloca ptr, align 8
  %6 = alloca i64, align 8
  %7 = alloca i32, align 4
  %8 = alloca i64, align 8
  store ptr %0, ptr %4, align 8, !tbaa !4
  store ptr %1, ptr %5, align 8, !tbaa !4
  store i64 %2, ptr %6, align 8, !tbaa !9
  call void @llvm.lifetime.start.p0(i64 4, ptr %7) #7
  store i32 0, ptr %7, align 4, !tbaa !13
  call void @llvm.lifetime.start.p0(i64 8, ptr %8) #7
  store i64 0, ptr %8, align 8, !tbaa !9
  br label %9

9:                                                ; preds = %27, %3
  %10 = load i64, ptr %8, align 8, !tbaa !9
  %11 = load i64, ptr %6, align 8, !tbaa !9
  %12 = icmp ult i64 %10, %11
  br i1 %12, label %14, label %13

13:                                               ; preds = %9
  call void @llvm.lifetime.end.p0(i64 8, ptr %8) #7
  br label %30

14:                                               ; preds = %9
  %15 = load ptr, ptr %4, align 8, !tbaa !4
  %16 = load i64, ptr %8, align 8, !tbaa !9
  %17 = getelementptr inbounds nuw i64, ptr %15, i64 %16
  %18 = load i64, ptr %17, align 8, !tbaa !9
  %19 = load ptr, ptr %5, align 8, !tbaa !4
  %20 = load i64, ptr %8, align 8, !tbaa !9
  %21 = getelementptr inbounds nuw i64, ptr %19, i64 %20
  %22 = load i64, ptr %21, align 8, !tbaa !9
  %23 = xor i64 %18, %22
  %24 = call noundef i32 @_ZN5faiss10popcount64Em(i64 noundef %23)
  %25 = load i32, ptr %7, align 4, !tbaa !13
  %26 = add nsw i32 %25, %24
  store i32 %26, ptr %7, align 4, !tbaa !13
  br label %27

27:                                               ; preds = %14
  %28 = load i64, ptr %8, align 8, !tbaa !9
  %29 = add i64 %28, 1
  store i64 %29, ptr %8, align 8, !tbaa !9
  br label %9, !llvm.loop !18

30:                                               ; preds = %13
  %31 = load i32, ptr %7, align 4, !tbaa !13
  call void @llvm.lifetime.end.p0(i64 4, ptr %7) #7
  ret i32 %31
}

; Function Attrs: mustprogress uwtable
define void @_ZN5faiss8hammingsEPKmS1_mmmPi(ptr noalias noundef %0, ptr noalias noundef %1, i64 noundef %2, i64 noundef %3, i64 noundef %4, ptr noalias noundef %5) #0 {
  %7 = alloca ptr, align 8
  %8 = alloca ptr, align 8
  %9 = alloca i64, align 8
  %10 = alloca i64, align 8
  %11 = alloca i64, align 8
  %12 = alloca ptr, align 8
  %13 = alloca i64, align 8
  %14 = alloca i64, align 8
  %15 = alloca ptr, align 8
  store ptr %0, ptr %7, align 8, !tbaa !4
  store ptr %1, ptr %8, align 8, !tbaa !4
  store i64 %2, ptr %9, align 8, !tbaa !9
  store i64 %3, ptr %10, align 8, !tbaa !9
  store i64 %4, ptr %11, align 8, !tbaa !9
  store ptr %5, ptr %12, align 8, !tbaa !11
  call void @llvm.lifetime.start.p0(i64 8, ptr %13) #7
  call void @llvm.lifetime.start.p0(i64 8, ptr %14) #7
  %16 = load i64, ptr %11, align 8, !tbaa !9
  %17 = load i64, ptr %9, align 8, !tbaa !9
  %18 = mul i64 %17, %16
  store i64 %18, ptr %9, align 8, !tbaa !9
  %19 = load i64, ptr %11, align 8, !tbaa !9
  %20 = load i64, ptr %10, align 8, !tbaa !9
  %21 = mul i64 %20, %19
  store i64 %21, ptr %10, align 8, !tbaa !9
  store i64 0, ptr %13, align 8, !tbaa !9
  br label %22

22:                                               ; preds = %49, %6
  %23 = load i64, ptr %13, align 8, !tbaa !9
  %24 = load i64, ptr %9, align 8, !tbaa !9
  %25 = icmp ult i64 %23, %24
  br i1 %25, label %26, label %53

26:                                               ; preds = %22
  call void @llvm.lifetime.start.p0(i64 8, ptr %15) #7
  %27 = load ptr, ptr %7, align 8, !tbaa !4
  %28 = load i64, ptr %13, align 8, !tbaa !9
  %29 = getelementptr inbounds nuw i64, ptr %27, i64 %28
  store ptr %29, ptr %15, align 8, !tbaa !4
  store i64 0, ptr %14, align 8, !tbaa !9
  br label %30

30:                                               ; preds = %44, %26
  %31 = load i64, ptr %14, align 8, !tbaa !9
  %32 = load i64, ptr %10, align 8, !tbaa !9
  %33 = icmp ult i64 %31, %32
  br i1 %33, label %34, label %48

34:                                               ; preds = %30
  %35 = load ptr, ptr %15, align 8, !tbaa !4
  %36 = load ptr, ptr %8, align 8, !tbaa !4
  %37 = load i64, ptr %14, align 8, !tbaa !9
  %38 = getelementptr inbounds nuw i64, ptr %36, i64 %37
  %39 = load i64, ptr %11, align 8, !tbaa !9
  %40 = call noundef i32 @_ZN5faiss7hammingEPKmS1_m(ptr noundef %35, ptr noundef %38, i64 noundef %39)
  %41 = load ptr, ptr %12, align 8, !tbaa !11
  %42 = load i64, ptr %14, align 8, !tbaa !9
  %43 = getelementptr inbounds nuw i32, ptr %41, i64 %42
  store i32 %40, ptr %43, align 4, !tbaa !13
  br label %44

44:                                               ; preds = %34
  %45 = load i64, ptr %11, align 8, !tbaa !9
  %46 = load i64, ptr %14, align 8, !tbaa !9
  %47 = add i64 %46, %45
  store i64 %47, ptr %14, align 8, !tbaa !9
  br label %30, !llvm.loop !15

48:                                               ; preds = %30
  call void @llvm.lifetime.end.p0(i64 8, ptr %15) #7
  br label %49

49:                                               ; preds = %48
  %50 = load i64, ptr %11, align 8, !tbaa !9
  %51 = load i64, ptr %13, align 8, !tbaa !9
  %52 = add i64 %51, %50
  store i64 %52, ptr %13, align 8, !tbaa !9
  br label %22, !llvm.loop !17

53:                                               ; preds = %22
  call void @llvm.lifetime.end.p0(i64 8, ptr %14) #7
  call void @llvm.lifetime.end.p0(i64 8, ptr %13) #7
  ret void
}