; Function Attrs: mustprogress nofree norecurse nosync nounwind memory(argmem: readwrite) uwtable
define void @_ZN5faiss8hammingsEPKmS1_mmmPi(ptr noalias noundef readonly captures(none) %0, ptr noalias noundef readonly captures(none) %1, i64 noundef %2, i64 noundef %3, i64 noundef %4, ptr noalias noundef writeonly captures(none) %5) local_unnamed_addr #0 {
  %7 = mul i64 %4, %2
  %8 = mul i64 %4, %3
  %.not = icmp eq i64 %7, 0
  %.not28 = icmp eq i64 %8, 0
  %or.cond = or i1 %.not, %.not28
  br i1 %or.cond, label %._crit_edge24, label %.lr.ph23.split.us

.lr.ph23.split.us:                                ; preds = %6
  %.not.i = icmp ne i64 %4, 0
  tail call void @llvm.assume(i1 %.not.i)
  br label %.lr.ph.us

.lr.ph.us:                                        ; preds = %.lr.ph23.split.us, %._crit_edge.split.us26
  %.01921.us = phi i64 [ %23, %._crit_edge.split.us26 ], [ 0, %.lr.ph23.split.us ]
  %9 = getelementptr inbounds nuw i64, ptr %0, i64 %.01921.us
  br label %.lr.ph.i.preheader.us

.lr.ph.i.preheader.us:                            ; preds = %.lr.ph.us, %_ZN5faiss7hammingEPKmS1_m.exit.loopexit.us
  %.020.us25 = phi i64 [ 0, %.lr.ph.us ], [ %21, %_ZN5faiss7hammingEPKmS1_m.exit.loopexit.us ]
  %10 = getelementptr inbounds nuw i64, ptr %1, i64 %.020.us25
  br label %.lr.ph.i.us

.lr.ph.i.us:                                      ; preds = %.lr.ph.i.us, %.lr.ph.i.preheader.us
  %.010.i.us = phi i64 [ %19, %.lr.ph.i.us ], [ 0, %.lr.ph.i.preheader.us ]
  %.089.i.us = phi i32 [ %18, %.lr.ph.i.us ], [ 0, %.lr.ph.i.preheader.us ]
  %11 = getelementptr inbounds nuw i64, ptr %9, i64 %.010.i.us
  %12 = load i64, ptr %11, align 8, !tbaa !4
  %13 = getelementptr inbounds nuw i64, ptr %10, i64 %.010.i.us
  %14 = load i64, ptr %13, align 8, !tbaa !4
  %15 = xor i64 %14, %12
  %16 = tail call range(i64 0, 65) i64 @llvm.ctpop.i64(i64 %15)
  %17 = trunc nuw nsw i64 %16 to i32
  %18 = add nuw nsw i32 %.089.i.us, %17
  %19 = add nuw i64 %.010.i.us, 1
  %exitcond.not.i.us = icmp eq i64 %19, %4
  br i1 %exitcond.not.i.us, label %_ZN5faiss7hammingEPKmS1_m.exit.loopexit.us, label %.lr.ph.i.us, !llvm.loop !8

_ZN5faiss7hammingEPKmS1_m.exit.loopexit.us:       ; preds = %.lr.ph.i.us
  %20 = getelementptr inbounds nuw i32, ptr %5, i64 %.020.us25
  store i32 %18, ptr %20, align 4, !tbaa !10
  %21 = add i64 %.020.us25, %4
  %22 = icmp ult i64 %21, %8
  br i1 %22, label %.lr.ph.i.preheader.us, label %._crit_edge.split.us26, !llvm.loop !12

._crit_edge.split.us26:                           ; preds = %_ZN5faiss7hammingEPKmS1_m.exit.loopexit.us
  %23 = add i64 %.01921.us, %4
  %24 = icmp ult i64 %23, %7
  br i1 %24, label %.lr.ph.us, label %._crit_edge24, !llvm.loop !13

._crit_edge24:                                    ; preds = %._crit_edge.split.us26, %6
  ret void
}